; Function Attrs: nounwind uwtable
define i32 @posix_spawnp(ptr noundef %0, ptr noundef nonnull %1, ptr noundef %2, ptr noundef %3, ptr noundef nonnull %4, ptr noundef %5) local_unnamed_addr #0 {
  tail call void (ptr, ...) @debug_print(ptr noundef nonnull @.str.7, ptr noundef nonnull %1)
  %7 = tail call fastcc zeroext i1 @is_ld(ptr noundef %1)
  br i1 %7, label %8, label %get_mold_path.exit

8:                                                ; preds = %6
  %9 = tail call ptr @getenv(ptr noundef nonnull @.str.15) #11
  %.not.i = icmp eq ptr %9, null
  br i1 %.not.i, label %10, label %get_mold_path.exit

10:                                               ; preds = %8
  %11 = load ptr, ptr @stderr, align 8, !tbaa !3
  %12 = tail call i64 @fwrite(ptr nonnull @.str.16, i64 21, i64 1, ptr %11) #12
  tail call void @exit(i32 noundef 1) #13
  unreachable

get_mold_path.exit:                               ; preds = %8, %6
  %.0 = phi ptr [ %1, %6 ], [ %9, %8 ]
  %13 = tail call ptr @dlsym(ptr noundef nonnull inttoptr (i64 -1 to ptr), ptr noundef nonnull @.str.8) #11
  %14 = tail call i32 %13(ptr noundef %0, ptr noundef nonnull %.0, ptr noundef %2, ptr noundef %3, ptr noundef nonnull %4, ptr noundef %5) #11
  ret i32 %14
}